target datalayout = "e-m:e-p270:32:32-p271:32:32-p272:64:64-i64:64-i128:128-f80:128-n8:16:32:64-S128"
target triple = "x86_64-pc-linux-gnu"

%struct.ssl_cipher_st = type { i32, ptr, ptr, i32, i32, i32, i32, i32, i32, i32, i32, i32, i32, i32, i32, i32 }

; Function Attrs: nounwind uwtable
define i32 @ssl_cipher_ptr_id_cmp(ptr noundef %0, ptr noundef %1) #0 {
  %3 = alloca i32, align 4
  %4 = alloca ptr, align 8
  %5 = alloca ptr, align 8
  store ptr %0, ptr %4, align 8, !tbaa !470
  store ptr %1, ptr %5, align 8, !tbaa !470
  %6 = load ptr, ptr %4, align 8, !tbaa !470
  %7 = load ptr, ptr %6, align 8, !tbaa !467
  %8 = getelementptr inbounds nuw %struct.ssl_cipher_st, ptr %7, i32 0, i32 3
  %9 = load i32, ptr %8, align 8, !tbaa !468
  %10 = load ptr, ptr %5, align 8, !tbaa !470
  %11 = load ptr, ptr %10, align 8, !tbaa !467
  %12 = getelementptr inbounds nuw %struct.ssl_cipher_st, ptr %11, i32 0, i32 3
  %13 = load i32, ptr %12, align 8, !tbaa !468
  %14 = icmp ugt i32 %9, %13
  br i1 %14, label %15, label %16

15:                                               ; preds = %2
  store i32 1, ptr %3, align 4
  br label %28

16:                                               ; preds = %2
  %17 = load ptr, ptr %4, align 8, !tbaa !470
  %18 = load ptr, ptr %17, align 8, !tbaa !467
  %19 = getelementptr inbounds nuw %struct.ssl_cipher_st, ptr %18, i32 0, i32 3
  %20 = load i32, ptr %19, align 8, !tbaa !468
  %21 = load ptr, ptr %5, align 8, !tbaa !470
  %22 = load ptr, ptr %21, align 8, !tbaa !467
  %23 = getelementptr inbounds nuw %struct.ssl_cipher_st, ptr %22, i32 0, i32 3
  %24 = load i32, ptr %23, align 8, !tbaa !468
  %25 = icmp ult i32 %20, %24
  br i1 %25, label %26, label %27

26:                                               ; preds = %16
  store i32 -1, ptr %3, align 4
  br label %28

27:                                               ; preds = %16
  store i32 0, ptr %3, align 4
  br label %28

28:                                               ; preds = %27, %26, %15
  %29 = load i32, ptr %3, align 4
  ret i32 %29
}