; Function Attrs: mustprogress nofree norecurse nosync nounwind willreturn memory(read, inaccessiblemem: none) uwtable
define range(i32 -1, 2) i32 @ssl_cipher_ptr_id_cmp(ptr noundef readonly captures(none) %0, ptr noundef readonly captures(none) %1) local_unnamed_addr #10 {
  %3 = load ptr, ptr %0, align 8, !tbaa !424
  %4 = getelementptr inbounds nuw i8, ptr %3, i64 24
  %5 = load i32, ptr %4, align 8, !tbaa !422
  %6 = load ptr, ptr %1, align 8, !tbaa !424
  %7 = getelementptr inbounds nuw i8, ptr %6, i64 24
  %8 = load i32, ptr %7, align 8, !tbaa !422
  %.0 = tail call i32 @llvm.ucmp.i32.i32(i32 %5, i32 %8)
  ret i32 %.0
}